; Function Attrs: mustprogress uwtable
define void @_ZN32pxrInternal_v0_24__pxrReserved__29UsdImagingGeomModelAPIAdapter24InvalidateImagingSubprimERKNS_7UsdPrimERKNS_7TfTokenES6_RKSt6vectorIS4_SaIS4_EENS_34UsdImagingPropertyInvalidationTypeE(ptr dead_on_unwind noalias writable sret(%"class.pxrInternal_v0_24__pxrReserved__::HdDataSourceLocatorSet") align 8 %0, ptr nonnull readnone align 8 captures(none) %1, ptr nonnull readnone align 8 captures(none) %2, ptr noundef nonnull readonly align 8 captures(none) dereferenceable(8) %3, ptr noundef nonnull readonly align 8 captures(none) dereferenceable(8) %4, ptr noundef nonnull align 8 dereferenceable(24) %5, i32 %6) unnamed_addr #0 align 2 {
  %8 = load ptr, ptr %3, align 8
  %9 = icmp eq ptr %8, null
  %10 = load ptr, ptr %4, align 8
  %11 = icmp eq ptr %10, null
  %or.cond = select i1 %9, i1 %11, i1 false
  br i1 %or.cond, label %15, label %12

12:                                               ; preds = %7
  %13 = getelementptr inbounds nuw i8, ptr %0, i64 448
  store i32 0, ptr %13, align 8
  %14 = getelementptr inbounds nuw i8, ptr %0, i64 452
  store i32 8, ptr %14, align 4
  br label %16

15:                                               ; preds = %7
  tail call fastcc void @_ZN32pxrInternal_v0_24__pxrReserved__12_GLOBAL__N_112_GetMappingsEv()
  tail call void @_ZN32pxrInternal_v0_24__pxrReserved__26UsdImagingDataSourceMapped10InvalidateERKSt6vectorINS_7TfTokenESaIS2_EERKNS0_17AttributeMappingsE(ptr dead_on_unwind writable sret(%"class.pxrInternal_v0_24__pxrReserved__::HdDataSourceLocatorSet") align 8 %0, ptr noundef nonnull align 8 dereferenceable(24) %5, ptr noundef nonnull align 8 dereferenceable(40) @_ZZN32pxrInternal_v0_24__pxrReserved__12_GLOBAL__N_112_GetMappingsEvE6result)
  br label %16

16:                                               ; preds = %15, %12
  ret void
}